target datalayout = "e-m:e-p270:32:32-p271:32:32-p272:64:64-i64:64-i128:128-f80:128-n8:16:32:64-S128"
target triple = "x86_64-pc-linux-gnu"

@.str.104 = private unnamed_addr constant [10 x i8] c"(double) \00", align 1

; Function Attrs: nounwind uwtable
define dso_local ptr @ldbRedisProtocolToHuman_Double(ptr noundef %0, ptr noundef %1) #0 {
  %3 = alloca ptr, align 8
  %4 = alloca ptr, align 8
  %5 = alloca ptr, align 8
  store ptr %0, ptr %3, align 8, !tbaa !100
  store ptr %1, ptr %4, align 8, !tbaa !16
  call void @llvm.lifetime.start.p0(i64 8, ptr %5) #14
  %6 = load ptr, ptr %4, align 8, !tbaa !16
  %7 = getelementptr inbounds i8, ptr %6, i64 1
  %8 = call ptr @strchr(ptr noundef %7, i32 noundef 13) #13
  store ptr %8, ptr %5, align 8, !tbaa !16
  %9 = load ptr, ptr %3, align 8, !tbaa !100
  %10 = load ptr, ptr %9, align 8, !tbaa !16
  %11 = call ptr @sdscatlen(ptr noundef %10, ptr noundef @.str.104, i64 noundef 9)
  %12 = load ptr, ptr %3, align 8, !tbaa !100
  store ptr %11, ptr %12, align 8, !tbaa !16
  %13 = load ptr, ptr %3, align 8, !tbaa !100
  %14 = load ptr, ptr %13, align 8, !tbaa !16
  %15 = load ptr, ptr %4, align 8, !tbaa !16
  %16 = getelementptr inbounds i8, ptr %15, i64 1
  %17 = load ptr, ptr %5, align 8, !tbaa !16
  %18 = load ptr, ptr %4, align 8, !tbaa !16
  %19 = ptrtoint ptr %17 to i64
  %20 = ptrtoint ptr %18 to i64
  %21 = sub i64 %19, %20
  %22 = sub nsw i64 %21, 1
  %23 = call ptr @sdscatlen(ptr noundef %14, ptr noundef %16, i64 noundef %22)
  %24 = load ptr, ptr %3, align 8, !tbaa !100
  store ptr %23, ptr %24, align 8, !tbaa !16
  %25 = load ptr, ptr %5, align 8, !tbaa !16
  %26 = getelementptr inbounds i8, ptr %25, i64 2
  call void @llvm.lifetime.end.p0(i64 8, ptr %5) #14
  ret ptr %26
}